target datalayout = "e-m:e-p270:32:32-p271:32:32-p272:64:64-i64:64-i128:128-f80:128-n8:16:32:64-S128"
target triple = "x86_64-pc-linux-gnu"

@dtgtk_expander_parent_class = internal global ptr null, align 8
@GtkDarktableExpander_private_offset = internal global i32 0, align 4

; Function Attrs: nounwind uwtable
define internal void @dtgtk_expander_class_init(ptr noundef %0) #0 {
  %2 = alloca ptr, align 8
  store ptr %0, ptr %2, align 8, !tbaa !30
  ret void
}

; Function Attrs: nounwind uwtable
define internal void @dtgtk_expander_class_intern_init(ptr noundef %0) #0 {
  %2 = alloca ptr, align 8
  store ptr %0, ptr %2, align 8, !tbaa !30
  %3 = load ptr, ptr %2, align 8, !tbaa !30
  %4 = call ptr @g_type_class_peek_parent(ptr noundef %3)
  store ptr %4, ptr @dtgtk_expander_parent_class, align 8, !tbaa !30
  %5 = load i32, ptr @GtkDarktableExpander_private_offset, align 4, !tbaa !13
  %6 = icmp ne i32 %5, 0
  br i1 %6, label %7, label %9

7:                                                ; preds = %1
  %8 = load ptr, ptr %2, align 8, !tbaa !30
  call void @g_type_class_adjust_private_offset(ptr noundef %8, ptr noundef @GtkDarktableExpander_private_offset)
  br label %9

9:                                                ; preds = %7, %1
  %10 = load ptr, ptr %2, align 8, !tbaa !30
  call void @dtgtk_expander_class_init(ptr noundef %10)
  ret void
}